; Function Attrs: nounwind uwtable
define range(i64 -1, -9223372036854775808) i64 @H5Eregister_class(ptr noundef %0, ptr noundef %1, ptr noundef %2) local_unnamed_addr #0 {
  %4 = alloca %struct.H5CX_node_t, align 8
  call void @llvm.lifetime.start.p0(i64 480, ptr nonnull %4) #7
  call void @llvm.memset.p0.i64(ptr noundef nonnull align 8 dereferenceable(480) %4, i8 0, i64 480, i1 false)
  %5 = load i8, ptr @H5_libinit_g, align 1, !tbaa !3, !range !7, !noundef !8
  %6 = trunc nuw i8 %5 to i1
  %7 = load i8, ptr @H5_libterm_g, align 1, !range !7
  %8 = trunc nuw i8 %7 to i1
  %9 = select i1 %6, i1 true, i1 %8
  br i1 %9, label %17, label %10, !prof !9

10:                                               ; preds = %3
  %11 = tail call i32 @H5_init_library() #7
  %12 = icmp slt i32 %11, 0
  br i1 %12, label %13, label %._crit_edge, !prof !10

._crit_edge:                                      ; preds = %10
  %.pre = load i8, ptr @H5_libterm_g, align 1, !range !7
  br label %17

13:                                               ; preds = %10
  %14 = load i64, ptr @H5E_FUNC_g, align 8, !tbaa !11
  %15 = load i64, ptr @H5E_CANTINIT_g, align 8, !tbaa !11
  %16 = tail call i32 (ptr, ptr, i32, i64, i64, ptr, ...) @H5E_printf_stack(ptr noundef nonnull @.str, ptr noundef nonnull @__func__.H5Eregister_class, i32 noundef 106, i64 noundef %14, i64 noundef %15, ptr noundef nonnull @.str.1) #7
  br label %.thread33

17:                                               ; preds = %._crit_edge, %3
  %18 = phi i8 [ %.pre, %._crit_edge ], [ %7, %3 ]
  %19 = load i8, ptr @H5E_init_g, align 1, !tbaa !3, !range !7, !noundef !8
  %20 = trunc nuw i8 %19 to i1
  %21 = trunc nuw i8 %18 to i1
  %22 = select i1 %20, i1 true, i1 %21
  br i1 %22, label %30, label %23, !prof !9

23:                                               ; preds = %17
  store i8 1, ptr @H5E_init_g, align 1, !tbaa !3
  %24 = tail call i32 @H5E__init_package() #7
  %25 = icmp slt i32 %24, 0
  br i1 %25, label %26, label %30, !prof !13

26:                                               ; preds = %23
  store i8 0, ptr @H5E_init_g, align 1, !tbaa !3
  %27 = load i64, ptr @H5E_FUNC_g, align 8, !tbaa !11
  %28 = load i64, ptr @H5E_CANTINIT_g, align 8, !tbaa !11
  %29 = tail call i32 (ptr, ptr, i32, i64, i64, ptr, ...) @H5E_printf_stack(ptr noundef nonnull @.str, ptr noundef nonnull @__func__.H5Eregister_class, i32 noundef 106, i64 noundef %27, i64 noundef %28, ptr noundef nonnull @.str.2) #7
  br label %.thread33

30:                                               ; preds = %17, %23
  %31 = call i32 @H5CX_push(ptr noundef nonnull %4) #7
  %32 = icmp slt i32 %31, 0
  br i1 %32, label %33, label %37, !prof !10

33:                                               ; preds = %30
  %34 = load i64, ptr @H5E_FUNC_g, align 8, !tbaa !11
  %35 = load i64, ptr @H5E_CANTSET_g, align 8, !tbaa !11
  %36 = call i32 (ptr, ptr, i32, i64, i64, ptr, ...) @H5E_printf_stack(ptr noundef nonnull @.str, ptr noundef nonnull @__func__.H5Eregister_class, i32 noundef 106, i64 noundef %34, i64 noundef %35, ptr noundef nonnull @.str.3) #7
  br label %.thread33

37:                                               ; preds = %30
  %38 = call i32 @H5E_clear_stack() #7
  %39 = icmp eq ptr %0, null
  %40 = icmp eq ptr %1, null
  %or.cond = or i1 %39, %40
  %41 = icmp eq ptr %2, null
  %or.cond3 = or i1 %or.cond, %41
  br i1 %or.cond3, label %42, label %46, !prof !14

42:                                               ; preds = %37
  %43 = load i64, ptr @H5E_ARGS_g, align 8, !tbaa !11
  %44 = load i64, ptr @H5E_BADVALUE_g, align 8, !tbaa !11
  %45 = call i32 (ptr, ptr, i32, i64, i64, ptr, ...) @H5E_printf_stack(ptr noundef nonnull @.str, ptr noundef nonnull @__func__.H5Eregister_class, i32 noundef 110, i64 noundef %43, i64 noundef %44, ptr noundef nonnull @.str.4) #7
  br label %.thread39

46:                                               ; preds = %37
  %47 = call ptr @H5E__register_class(ptr noundef nonnull %0, ptr noundef nonnull %1, ptr noundef nonnull %2) #7
  %48 = icmp eq ptr %47, null
  br i1 %48, label %49, label %53, !prof !14

49:                                               ; preds = %46
  %50 = load i64, ptr @H5E_ERROR_g, align 8, !tbaa !11
  %51 = load i64, ptr @H5E_CANTCREATE_g, align 8, !tbaa !11
  %52 = call i32 (ptr, ptr, i32, i64, i64, ptr, ...) @H5E_printf_stack(ptr noundef nonnull @.str, ptr noundef nonnull @__func__.H5Eregister_class, i32 noundef 114, i64 noundef %50, i64 noundef %51, ptr noundef nonnull @.str.5) #7
  br label %.thread39

53:                                               ; preds = %46
  %54 = call i64 @H5I_register(i32 noundef 12, ptr noundef nonnull %47, i1 noundef zeroext true) #7
  %55 = icmp slt i64 %54, 0
  br i1 %55, label %56, label %61, !prof !14

56:                                               ; preds = %53
  %57 = load i64, ptr @H5E_ERROR_g, align 8, !tbaa !11
  %58 = load i64, ptr @H5E_CANTREGISTER_g, align 8, !tbaa !11
  %59 = call i32 (ptr, ptr, i32, i64, i64, ptr, ...) @H5E_printf_stack(ptr noundef nonnull @.str, ptr noundef nonnull @__func__.H5Eregister_class, i32 noundef 118, i64 noundef %57, i64 noundef %58, ptr noundef nonnull @.str.6) #7
  br label %.thread39

.thread39:                                        ; preds = %56, %49, %42
  %60 = call i32 @H5CX_pop(i1 noundef zeroext true) #7
  br label %.thread33

61:                                               ; preds = %53
  %62 = call i32 @H5CX_pop(i1 noundef zeroext true) #7
  br label %64

.thread33:                                        ; preds = %33, %26, %13, %.thread39
  %63 = call i32 @H5E_dump_api_stack() #7
  br label %64

64:                                               ; preds = %61, %.thread33
  %.0192836 = phi i64 [ -1, %.thread33 ], [ %54, %61 ]
  call void @llvm.lifetime.end.p0(i64 480, ptr nonnull %4) #7
  ret i64 %.0192836
}